target datalayout = "e-m:e-p270:32:32-p271:32:32-p272:64:64-i64:64-i128:128-f80:128-n8:16:32:64-S128"
target triple = "x86_64-pc-linux-gnu"

%class.p3p = type { double, double, double, double, double, double, double, double }

; Function Attrs: mustprogress nounwind uwtable
define hidden void @_ZN3p3p23init_inverse_parametersEv(ptr noundef nonnull align 8 dereferenceable(64) %0) #4 align 2 {
  %2 = alloca ptr, align 8
  store ptr %0, ptr %2, align 8, !tbaa !3
  %3 = load ptr, ptr %2, align 8
  %4 = getelementptr inbounds nuw %class.p3p, ptr %3, i32 0, i32 0
  %5 = load double, ptr %4, align 8, !tbaa !8
  %6 = fdiv double 1.000000e+00, %5
  %7 = getelementptr inbounds nuw %class.p3p, ptr %3, i32 0, i32 4
  store double %6, ptr %7, align 8, !tbaa !11
  %8 = getelementptr inbounds nuw %class.p3p, ptr %3, i32 0, i32 1
  %9 = load double, ptr %8, align 8, !tbaa !12
  %10 = fdiv double 1.000000e+00, %9
  %11 = getelementptr inbounds nuw %class.p3p, ptr %3, i32 0, i32 5
  store double %10, ptr %11, align 8, !tbaa !13
  %12 = getelementptr inbounds nuw %class.p3p, ptr %3, i32 0, i32 2
  %13 = load double, ptr %12, align 8, !tbaa !14
  %14 = getelementptr inbounds nuw %class.p3p, ptr %3, i32 0, i32 0
  %15 = load double, ptr %14, align 8, !tbaa !8
  %16 = fdiv double %13, %15
  %17 = getelementptr inbounds nuw %class.p3p, ptr %3, i32 0, i32 6
  store double %16, ptr %17, align 8, !tbaa !15
  %18 = getelementptr inbounds nuw %class.p3p, ptr %3, i32 0, i32 3
  %19 = load double, ptr %18, align 8, !tbaa !16
  %20 = getelementptr inbounds nuw %class.p3p, ptr %3, i32 0, i32 1
  %21 = load double, ptr %20, align 8, !tbaa !12
  %22 = fdiv double %19, %21
  %23 = getelementptr inbounds nuw %class.p3p, ptr %3, i32 0, i32 7
  store double %22, ptr %23, align 8, !tbaa !17
  ret void
}

; Function Attrs: mustprogress nounwind uwtable
define hidden void @_ZN3p3pC2Edddd(ptr noundef nonnull align 8 dereferenceable(64) %0, double noundef %1, double noundef %2, double noundef %3, double noundef %4) unnamed_addr #4 align 2 {
  %6 = alloca ptr, align 8
  %7 = alloca double, align 8
  %8 = alloca double, align 8
  %9 = alloca double, align 8
  %10 = alloca double, align 8
  store ptr %0, ptr %6, align 8, !tbaa !3
  store double %1, ptr %7, align 8, !tbaa !32
  store double %2, ptr %8, align 8, !tbaa !32
  store double %3, ptr %9, align 8, !tbaa !32
  store double %4, ptr %10, align 8, !tbaa !32
  %11 = load ptr, ptr %6, align 8
  %12 = load double, ptr %7, align 8, !tbaa !32
  %13 = getelementptr inbounds nuw %class.p3p, ptr %11, i32 0, i32 0
  store double %12, ptr %13, align 8, !tbaa !8
  %14 = load double, ptr %8, align 8, !tbaa !32
  %15 = getelementptr inbounds nuw %class.p3p, ptr %11, i32 0, i32 1
  store double %14, ptr %15, align 8, !tbaa !12
  %16 = load double, ptr %9, align 8, !tbaa !32
  %17 = getelementptr inbounds nuw %class.p3p, ptr %11, i32 0, i32 2
  store double %16, ptr %17, align 8, !tbaa !14
  %18 = load double, ptr %10, align 8, !tbaa !32
  %19 = getelementptr inbounds nuw %class.p3p, ptr %11, i32 0, i32 3
  store double %18, ptr %19, align 8, !tbaa !16
  call void @_ZN3p3p23init_inverse_parametersEv(ptr noundef nonnull align 8 dereferenceable(64) %11)
  ret void
}