; Function Attrs: mustprogress nofree norecurse nosync nounwind willreturn memory(argmem: write) uwtable
define hidden void @_ZN3p3pC2Edddd(ptr noundef nonnull writeonly align 8 captures(none) dereferenceable(64) initializes((0, 64)) %0, double noundef %1, double noundef %2, double noundef %3, double noundef %4) unnamed_addr #5 align 2 {
  store double %1, ptr %0, align 8, !tbaa !3
  %6 = getelementptr inbounds nuw i8, ptr %0, i64 8
  store double %2, ptr %6, align 8, !tbaa !9
  %7 = getelementptr inbounds nuw i8, ptr %0, i64 16
  store double %3, ptr %7, align 8, !tbaa !11
  %8 = getelementptr inbounds nuw i8, ptr %0, i64 24
  store double %4, ptr %8, align 8, !tbaa !13
  %9 = fdiv double 1.000000e+00, %1
  %10 = getelementptr inbounds nuw i8, ptr %0, i64 32
  store double %9, ptr %10, align 8, !tbaa !8
  %11 = fdiv double 1.000000e+00, %2
  %12 = getelementptr inbounds nuw i8, ptr %0, i64 40
  store double %11, ptr %12, align 8, !tbaa !10
  %13 = fdiv double %3, %1
  %14 = getelementptr inbounds nuw i8, ptr %0, i64 48
  store double %13, ptr %14, align 8, !tbaa !12
  %15 = fdiv double %4, %2
  %16 = getelementptr inbounds nuw i8, ptr %0, i64 56
  store double %15, ptr %16, align 8, !tbaa !14
  ret void
}